target datalayout = "e-m:e-p270:32:32-p271:32:32-p272:64:64-i64:64-i128:128-f80:128-n8:16:32:64-S128"
target triple = "x86_64-pc-linux-gnu"

%struct.mbedtls_asn1_buf = type { i32, i64, ptr }

@.str = private unnamed_addr constant [118 x i8] c"generated/home/dtcxzyw/WorkSpace/Projects/compilers/llvm-opt-benchmark/bench/lief/bench_build/mbed_src/library/x509.c\00", align 1

; Function Attrs: inlinehint nounwind uwtable
define internal i32 @mbedtls_error_add(i32 noundef %0, i32 noundef %1, ptr noundef %2, i32 noundef %3) #2 {
  %5 = alloca i32, align 4
  %6 = alloca i32, align 4
  %7 = alloca ptr, align 8
  %8 = alloca i32, align 4
  store i32 %0, ptr %5, align 4, !tbaa !13
  store i32 %1, ptr %6, align 4, !tbaa !13
  store ptr %2, ptr %7, align 8, !tbaa !9
  store i32 %3, ptr %8, align 4, !tbaa !13
  %9 = load i32, ptr %5, align 4, !tbaa !13
  %10 = load i32, ptr %6, align 4, !tbaa !13
  %11 = add nsw i32 %9, %10
  ret i32 %11
}

; Function Attrs: nounwind uwtable
define hidden i32 @mbedtls_x509_get_serial(ptr noundef %0, ptr noundef %1, ptr noundef %2) #0 {
  %4 = alloca i32, align 4
  %5 = alloca ptr, align 8
  %6 = alloca ptr, align 8
  %7 = alloca ptr, align 8
  %8 = alloca i32, align 4
  %9 = alloca i32, align 4
  store ptr %0, ptr %5, align 8, !tbaa !3
  store ptr %1, ptr %6, align 8, !tbaa !9
  store ptr %2, ptr %7, align 8, !tbaa !11
  call void @llvm.lifetime.start.p0(i64 4, ptr %8) #9
  store i32 -110, ptr %8, align 4, !tbaa !13
  %10 = load ptr, ptr %6, align 8, !tbaa !9
  %11 = load ptr, ptr %5, align 8, !tbaa !3
  %12 = load ptr, ptr %11, align 8, !tbaa !9
  %13 = ptrtoint ptr %10 to i64
  %14 = ptrtoint ptr %12 to i64
  %15 = sub i64 %13, %14
  %16 = icmp slt i64 %15, 1
  br i1 %16, label %17, label %19

17:                                               ; preds = %3
  %18 = call i32 @mbedtls_error_add(i32 noundef -8832, i32 noundef -96, ptr noundef @.str, i32 noundef 70)
  store i32 %18, ptr %4, align 4
  store i32 1, ptr %9, align 4
  br label %61

19:                                               ; preds = %3
  %20 = load ptr, ptr %5, align 8, !tbaa !3
  %21 = load ptr, ptr %20, align 8, !tbaa !9
  %22 = load i8, ptr %21, align 1, !tbaa !15
  %23 = zext i8 %22 to i32
  %24 = icmp ne i32 %23, 130
  br i1 %24, label %25, label %33

25:                                               ; preds = %19
  %26 = load ptr, ptr %5, align 8, !tbaa !3
  %27 = load ptr, ptr %26, align 8, !tbaa !9
  %28 = load i8, ptr %27, align 1, !tbaa !15
  %29 = zext i8 %28 to i32
  %30 = icmp ne i32 %29, 2
  br i1 %30, label %31, label %33

31:                                               ; preds = %25
  %32 = call i32 @mbedtls_error_add(i32 noundef -8832, i32 noundef -98, ptr noundef @.str, i32 noundef 76)
  store i32 %32, ptr %4, align 4
  store i32 1, ptr %9, align 4
  br label %61

33:                                               ; preds = %25, %19
  %34 = load ptr, ptr %5, align 8, !tbaa !3
  %35 = load ptr, ptr %34, align 8, !tbaa !9
  %36 = getelementptr inbounds nuw i8, ptr %35, i32 1
  store ptr %36, ptr %34, align 8, !tbaa !9
  %37 = load i8, ptr %35, align 1, !tbaa !15
  %38 = zext i8 %37 to i32
  %39 = load ptr, ptr %7, align 8, !tbaa !11
  %40 = getelementptr inbounds nuw %struct.mbedtls_asn1_buf, ptr %39, i32 0, i32 0
  store i32 %38, ptr %40, align 8, !tbaa !16
  %41 = load ptr, ptr %5, align 8, !tbaa !3
  %42 = load ptr, ptr %6, align 8, !tbaa !9
  %43 = load ptr, ptr %7, align 8, !tbaa !11
  %44 = getelementptr inbounds nuw %struct.mbedtls_asn1_buf, ptr %43, i32 0, i32 1
  %45 = call i32 @mbedtls_asn1_get_len(ptr noundef %41, ptr noundef %42, ptr noundef %44)
  store i32 %45, ptr %8, align 4, !tbaa !13
  %46 = icmp ne i32 %45, 0
  br i1 %46, label %47, label %50

47:                                               ; preds = %33
  %48 = load i32, ptr %8, align 4, !tbaa !13
  %49 = call i32 @mbedtls_error_add(i32 noundef -8832, i32 noundef %48, ptr noundef @.str, i32 noundef 82)
  store i32 %49, ptr %4, align 4
  store i32 1, ptr %9, align 4
  br label %61

50:                                               ; preds = %33
  %51 = load ptr, ptr %5, align 8, !tbaa !3
  %52 = load ptr, ptr %51, align 8, !tbaa !9
  %53 = load ptr, ptr %7, align 8, !tbaa !11
  %54 = getelementptr inbounds nuw %struct.mbedtls_asn1_buf, ptr %53, i32 0, i32 2
  store ptr %52, ptr %54, align 8, !tbaa !19
  %55 = load ptr, ptr %7, align 8, !tbaa !11
  %56 = getelementptr inbounds nuw %struct.mbedtls_asn1_buf, ptr %55, i32 0, i32 1
  %57 = load i64, ptr %56, align 8, !tbaa !20
  %58 = load ptr, ptr %5, align 8, !tbaa !3
  %59 = load ptr, ptr %58, align 8, !tbaa !9
  %60 = getelementptr inbounds nuw i8, ptr %59, i64 %57
  store ptr %60, ptr %58, align 8, !tbaa !9
  store i32 0, ptr %4, align 4
  store i32 1, ptr %9, align 4
  br label %61

61:                                               ; preds = %50, %47, %31, %17
  call void @llvm.lifetime.end.p0(i64 4, ptr %8) #9
  %62 = load i32, ptr %4, align 4
  ret i32 %62
}