; Function Attrs: nounwind uwtable
define hidden range(i32 -2147483648, 2147474816) i32 @mbedtls_x509_get_serial(ptr noundef %0, ptr noundef %1, ptr noundef %2) local_unnamed_addr #0 {
  %4 = load ptr, ptr %0, align 8, !tbaa !3
  %5 = ptrtoint ptr %1 to i64
  %6 = ptrtoint ptr %4 to i64
  %7 = sub i64 %5, %6
  %8 = icmp slt i64 %7, 1
  br i1 %8, label %24, label %9

9:                                                ; preds = %3
  %10 = load i8, ptr %4, align 1, !tbaa !8
  switch i8 %10, label %24 [
    i8 -126, label %11
    i8 2, label %11
  ]

11:                                               ; preds = %9, %9
  %12 = getelementptr inbounds nuw i8, ptr %4, i64 1
  store ptr %12, ptr %0, align 8, !tbaa !3
  %13 = load i8, ptr %4, align 1, !tbaa !8
  %14 = zext i8 %13 to i32
  store i32 %14, ptr %2, align 8, !tbaa !9
  %15 = getelementptr inbounds nuw i8, ptr %2, i64 8
  %16 = tail call i32 @mbedtls_asn1_get_len(ptr noundef nonnull %0, ptr noundef %1, ptr noundef nonnull %15) #13
  %.not17 = icmp eq i32 %16, 0
  br i1 %.not17, label %19, label %17

17:                                               ; preds = %11
  %18 = add nsw i32 %16, -8832
  br label %24

19:                                               ; preds = %11
  %20 = load ptr, ptr %0, align 8, !tbaa !3
  %21 = getelementptr inbounds nuw i8, ptr %2, i64 16
  store ptr %20, ptr %21, align 8, !tbaa !13
  %22 = load i64, ptr %15, align 8, !tbaa !14
  %23 = getelementptr inbounds nuw i8, ptr %20, i64 %22
  store ptr %23, ptr %0, align 8, !tbaa !3
  br label %24

24:                                               ; preds = %9, %3, %19, %17
  %.0 = phi i32 [ %18, %17 ], [ 0, %19 ], [ -8928, %3 ], [ -8930, %9 ]
  ret i32 %.0
}